; Function Attrs: nounwind uwtable
define noundef ptr @l___private_Lean_Compiler_IR_FreeVars_0__Lean_IR_MaxIndex_collectVar___boxed(ptr noundef %0, ptr noundef %1) local_unnamed_addr #0 {
  %3 = ptrtoint ptr %1 to i64
  %4 = and i64 %3, 1
  %.not.i8 = icmp eq i64 %4, 0
  br i1 %.not.i8, label %lean_nat_lt.exit.thread12.i, label %5, !prof !11

5:                                                ; preds = %2
  %6 = ptrtoint ptr %0 to i64
  %7 = and i64 %6, 1
  %.not14.i = icmp eq i64 %7, 0
  br i1 %.not14.i, label %lean_nat_lt.exit.i, label %lean_nat_lt.exit.thread.i, !prof !11

lean_nat_lt.exit.i:                               ; preds = %5
  %8 = tail call zeroext i1 @lean_nat_big_lt(ptr noundef %1, ptr noundef %0) #3
  br i1 %8, label %.thread.i, label %lean_dec.exit5

lean_nat_lt.exit.thread12.i:                      ; preds = %2
  %9 = tail call zeroext i1 @lean_nat_big_lt(ptr noundef %1, ptr noundef %0) #3
  br i1 %9, label %16, label %10

lean_nat_lt.exit.thread.i:                        ; preds = %5
  %.not15.i = icmp ult ptr %1, %0
  %spec.select.i = select i1 %.not15.i, ptr %0, ptr %1
  br label %lean_dec.exit5

10:                                               ; preds = %lean_nat_lt.exit.thread12.i
  %.val.i.i = load i32, ptr %1, align 4, !tbaa !4
  %11 = icmp sgt i32 %.val.i.i, 0
  br i1 %11, label %12, label %14, !prof !9

12:                                               ; preds = %10
  %13 = add nuw i32 %.val.i.i, 1
  store i32 %13, ptr %1, align 4, !tbaa !4
  br label %l___private_Lean_Compiler_IR_FreeVars_0__Lean_IR_MaxIndex_collectVar.exit.thread

14:                                               ; preds = %10
  %.not.i.i = icmp eq i32 %.val.i.i, 0
  br i1 %.not.i.i, label %lean_dec.exit5, label %15

15:                                               ; preds = %14
  tail call void @lean_inc_ref_cold(ptr noundef nonnull %1) #3
  br label %l___private_Lean_Compiler_IR_FreeVars_0__Lean_IR_MaxIndex_collectVar.exit.threadthread-pre-split

16:                                               ; preds = %lean_nat_lt.exit.thread12.i
  %.pre.i = ptrtoint ptr %0 to i64
  %.pre17.i = and i64 %.pre.i, 1
  %17 = icmp eq i64 %.pre17.i, 0
  br i1 %17, label %.thread.i, label %l___private_Lean_Compiler_IR_FreeVars_0__Lean_IR_MaxIndex_collectVar.exit.threadthread-pre-split

.thread.i:                                        ; preds = %16, %lean_nat_lt.exit.i
  %.val.i8.i = load i32, ptr %0, align 4, !tbaa !4
  %18 = icmp sgt i32 %.val.i8.i, 0
  br i1 %18, label %19, label %21, !prof !9

19:                                               ; preds = %.thread.i
  %20 = add nuw i32 %.val.i8.i, 1
  store i32 %20, ptr %0, align 4, !tbaa !4
  br label %l___private_Lean_Compiler_IR_FreeVars_0__Lean_IR_MaxIndex_collectVar.exit

21:                                               ; preds = %.thread.i
  %.not.i9.i = icmp eq i32 %.val.i8.i, 0
  br i1 %.not.i9.i, label %l___private_Lean_Compiler_IR_FreeVars_0__Lean_IR_MaxIndex_collectVar.exit, label %22

22:                                               ; preds = %21
  tail call void @lean_inc_ref_cold(ptr noundef nonnull %0) #3
  br label %l___private_Lean_Compiler_IR_FreeVars_0__Lean_IR_MaxIndex_collectVar.exit

l___private_Lean_Compiler_IR_FreeVars_0__Lean_IR_MaxIndex_collectVar.exit: ; preds = %19, %21, %22
  br i1 %.not.i8, label %l___private_Lean_Compiler_IR_FreeVars_0__Lean_IR_MaxIndex_collectVar.exit.threadthread-pre-split, label %lean_dec.exit5

l___private_Lean_Compiler_IR_FreeVars_0__Lean_IR_MaxIndex_collectVar.exit.threadthread-pre-split: ; preds = %l___private_Lean_Compiler_IR_FreeVars_0__Lean_IR_MaxIndex_collectVar.exit, %15, %16
  %.0.i10.ph = phi ptr [ %1, %15 ], [ %0, %16 ], [ %0, %l___private_Lean_Compiler_IR_FreeVars_0__Lean_IR_MaxIndex_collectVar.exit ]
  %.pr = load i32, ptr %1, align 4, !tbaa !4
  br label %l___private_Lean_Compiler_IR_FreeVars_0__Lean_IR_MaxIndex_collectVar.exit.thread

l___private_Lean_Compiler_IR_FreeVars_0__Lean_IR_MaxIndex_collectVar.exit.thread: ; preds = %l___private_Lean_Compiler_IR_FreeVars_0__Lean_IR_MaxIndex_collectVar.exit.threadthread-pre-split, %12
  %23 = phi i32 [ %.pr, %l___private_Lean_Compiler_IR_FreeVars_0__Lean_IR_MaxIndex_collectVar.exit.threadthread-pre-split ], [ %13, %12 ]
  %.0.i10 = phi ptr [ %.0.i10.ph, %l___private_Lean_Compiler_IR_FreeVars_0__Lean_IR_MaxIndex_collectVar.exit.threadthread-pre-split ], [ %1, %12 ]
  %24 = icmp sgt i32 %23, 1
  br i1 %24, label %25, label %27, !prof !12

25:                                               ; preds = %l___private_Lean_Compiler_IR_FreeVars_0__Lean_IR_MaxIndex_collectVar.exit.thread
  %26 = add nsw i32 %23, -1
  store i32 %26, ptr %1, align 4, !tbaa !4
  br label %lean_dec.exit5

27:                                               ; preds = %l___private_Lean_Compiler_IR_FreeVars_0__Lean_IR_MaxIndex_collectVar.exit.thread
  %.not.i = icmp eq i32 %23, 0
  br i1 %.not.i, label %lean_dec.exit5, label %28

28:                                               ; preds = %27
  tail call void @lean_dec_ref_cold(ptr noundef nonnull %1) #3
  br label %lean_dec.exit5

lean_dec.exit5:                                   ; preds = %14, %lean_nat_lt.exit.thread.i, %lean_nat_lt.exit.i, %28, %27, %25, %l___private_Lean_Compiler_IR_FreeVars_0__Lean_IR_MaxIndex_collectVar.exit
  %.0.i11 = phi ptr [ %0, %l___private_Lean_Compiler_IR_FreeVars_0__Lean_IR_MaxIndex_collectVar.exit ], [ %.0.i10, %25 ], [ %.0.i10, %27 ], [ %.0.i10, %28 ], [ %spec.select.i, %lean_nat_lt.exit.thread.i ], [ %1, %lean_nat_lt.exit.i ], [ %1, %14 ]
  %29 = ptrtoint ptr %0 to i64
  %30 = and i64 %29, 1
  %.not20 = icmp eq i64 %30, 0
  br i1 %.not20, label %31, label %lean_dec.exit

31:                                               ; preds = %lean_dec.exit5
  %32 = load i32, ptr %0, align 4, !tbaa !4
  %33 = icmp sgt i32 %32, 1
  br i1 %33, label %34, label %36, !prof !9

34:                                               ; preds = %31
  %35 = add nsw i32 %32, -1
  store i32 %35, ptr %0, align 4, !tbaa !4
  br label %lean_dec.exit

36:                                               ; preds = %31
  %.not.i6 = icmp eq i32 %32, 0
  br i1 %.not.i6, label %lean_dec.exit, label %37

37:                                               ; preds = %36
  tail call void @lean_dec_ref_cold(ptr noundef nonnull %0) #3
  br label %lean_dec.exit

lean_dec.exit:                                    ; preds = %37, %36, %34, %lean_dec.exit5
  ret ptr %.0.i11
}